target datalayout = "e-m:e-p270:32:32-p271:32:32-p272:64:64-i64:64-i128:128-f80:128-n8:16:32:64-S128"
target triple = "x86_64-pc-linux-gnu"

%struct.pmix_list_t = type { %struct.pmix_object_t, %struct.pmix_list_item_t, i64 }
%struct.pmix_object_t = type { %union.pthread_mutex_t, ptr, i32, %struct.pmix_tma }
%union.pthread_mutex_t = type { %struct.__pthread_mutex_s }
%struct.__pthread_mutex_s = type { i32, i32, i32, i32, i32, i16, i16, %struct.__pthread_internal_list }
%struct.__pthread_internal_list = type { ptr, ptr }
%struct.pmix_tma = type { ptr, ptr, ptr, ptr, ptr, ptr, ptr, ptr }
%struct.pmix_list_item_t = type { %struct.pmix_object_t, ptr, ptr, i32 }
%struct.prte_attribute_t = type { %struct.pmix_list_item_t, i16, i8, %struct.pmix_value }
%struct.pmix_value = type { i16, %union.anon }
%union.anon = type { %struct.pmix_envar_t }
%struct.pmix_envar_t = type { ptr, ptr, i8 }

; Function Attrs: nounwind uwtable
define ptr @prte_attr_print_list(ptr noundef %0) #0 {
  %2 = alloca ptr, align 8
  %3 = alloca ptr, align 8
  %4 = alloca ptr, align 8
  %5 = alloca ptr, align 8
  store ptr %0, ptr %2, align 8, !tbaa !3
  call void @llvm.lifetime.start.p0(i64 8, ptr %3) #11
  call void @llvm.lifetime.start.p0(i64 8, ptr %4) #11
  store ptr null, ptr %4, align 8, !tbaa !92
  call void @llvm.lifetime.start.p0(i64 8, ptr %5) #11
  %6 = load ptr, ptr %2, align 8, !tbaa !3
  %7 = getelementptr inbounds nuw %struct.pmix_list_t, ptr %6, i32 0, i32 1
  %8 = getelementptr inbounds nuw %struct.pmix_list_item_t, ptr %7, i32 0, i32 1
  %9 = load ptr, ptr %8, align 8, !tbaa !11
  store ptr %9, ptr %5, align 8, !tbaa !10
  br label %10

10:                                               ; preds = %21, %1
  %11 = load ptr, ptr %5, align 8, !tbaa !10
  %12 = load ptr, ptr %2, align 8, !tbaa !3
  %13 = getelementptr inbounds nuw %struct.pmix_list_t, ptr %12, i32 0, i32 1
  %14 = icmp ne ptr %11, %13
  br i1 %14, label %15, label %25

15:                                               ; preds = %10
  %16 = load ptr, ptr %5, align 8, !tbaa !10
  %17 = getelementptr inbounds nuw %struct.prte_attribute_t, ptr %16, i32 0, i32 1
  %18 = load i16, ptr %17, align 8, !tbaa !20
  %19 = call ptr @prte_attr_key_to_str(i16 noundef zeroext %18)
  %20 = call i32 @PMIx_Argv_append_nosize(ptr noundef %4, ptr noundef %19)
  br label %21

21:                                               ; preds = %15
  %22 = load ptr, ptr %5, align 8, !tbaa !10
  %23 = getelementptr inbounds nuw %struct.pmix_list_item_t, ptr %22, i32 0, i32 1
  %24 = load ptr, ptr %23, align 8, !tbaa !26
  store ptr %24, ptr %5, align 8, !tbaa !10
  br label %10, !llvm.loop !94

25:                                               ; preds = %10
  %26 = load ptr, ptr %4, align 8, !tbaa !92
  %27 = icmp ne ptr null, %26
  br i1 %27, label %28, label %32

28:                                               ; preds = %25
  %29 = load ptr, ptr %4, align 8, !tbaa !92
  %30 = call ptr @PMIx_Argv_join(ptr noundef %29, i32 noundef 10)
  store ptr %30, ptr %3, align 8, !tbaa !85
  %31 = load ptr, ptr %4, align 8, !tbaa !92
  call void @PMIx_Argv_free(ptr noundef %31)
  br label %33

32:                                               ; preds = %25
  store ptr null, ptr %3, align 8, !tbaa !85
  br label %33

33:                                               ; preds = %32, %28
  %34 = load ptr, ptr %3, align 8, !tbaa !85
  call void @llvm.lifetime.end.p0(i64 8, ptr %5) #11
  call void @llvm.lifetime.end.p0(i64 8, ptr %4) #11
  call void @llvm.lifetime.end.p0(i64 8, ptr %3) #11
  ret ptr %34
}