; Function Attrs: nounwind uwtable
define ptr @prte_attr_print_list(ptr noundef readonly captures(address) %0) local_unnamed_addr #0 {
  %2 = alloca ptr, align 8
  call void @llvm.lifetime.start.p0(i64 8, ptr nonnull %2) #13
  store ptr null, ptr %2, align 8, !tbaa !70
  %3 = getelementptr inbounds nuw i8, ptr %0, i64 120
  %4 = getelementptr inbounds nuw i8, ptr %0, i64 240
  %.09 = load ptr, ptr %4, align 8, !tbaa !3
  %.not10 = icmp eq ptr %.09, %3
  br i1 %.not10, label %._crit_edge.thread, label %.lr.ph

.lr.ph:                                           ; preds = %1, %.lr.ph
  %.011 = phi ptr [ %.0, %.lr.ph ], [ %.09, %1 ]
  %5 = getelementptr inbounds nuw i8, ptr %.011, i64 144
  %6 = load i16, ptr %5, align 8, !tbaa !13
  %7 = call ptr @prte_attr_key_to_str(i16 noundef zeroext %6)
  %8 = call i32 @PMIx_Argv_append_nosize(ptr noundef nonnull %2, ptr noundef %7) #13
  %9 = getelementptr inbounds nuw i8, ptr %.011, i64 120
  %.0 = load ptr, ptr %9, align 8, !tbaa !3
  %.not = icmp eq ptr %.0, %3
  br i1 %.not, label %._crit_edge, label %.lr.ph, !llvm.loop !72

._crit_edge:                                      ; preds = %.lr.ph
  %.pre = load ptr, ptr %2, align 8, !tbaa !70
  %.not8 = icmp eq ptr %.pre, null
  br i1 %.not8, label %._crit_edge.thread, label %10

10:                                               ; preds = %._crit_edge
  %11 = call ptr @PMIx_Argv_join(ptr noundef nonnull %.pre, i32 noundef 10) #13
  %12 = load ptr, ptr %2, align 8, !tbaa !70
  call void @PMIx_Argv_free(ptr noundef %12) #13
  br label %._crit_edge.thread

._crit_edge.thread:                               ; preds = %1, %._crit_edge, %10
  %.06 = phi ptr [ %11, %10 ], [ null, %._crit_edge ], [ null, %1 ]
  call void @llvm.lifetime.end.p0(i64 8, ptr nonnull %2) #13
  ret ptr %.06
}